target datalayout = "e-m:e-p270:32:32-p271:32:32-p272:64:64-i64:64-i128:128-f80:128-n8:16:32:64-S128"
target triple = "x86_64-pc-linux-gnu"

@g_ascii_table = external constant ptr, align 8

; Function Attrs: nounwind null_pointer_is_valid sspstrong uwtable
define internal i32 @parse_hex_dump(ptr noundef %0, ptr noundef %1, i8 noundef signext %2, i8 noundef signext %3) #7 {
  %5 = alloca i32, align 4
  %6 = alloca ptr, align 8
  %7 = alloca ptr, align 8
  %8 = alloca i8, align 1
  %9 = alloca i8, align 1
  %10 = alloca i32, align 4
  %11 = alloca i32, align 4
  %12 = alloca i32, align 4
  store ptr %0, ptr %6, align 8
  store ptr %1, ptr %7, align 8
  store i8 %2, ptr %8, align 1
  store i8 %3, ptr %9, align 1
  call void @llvm.lifetime.start.p0(i64 4, ptr %10) #11
  call void @llvm.lifetime.start.p0(i64 4, ptr %11) #11
  store i32 0, ptr %10, align 4
  store i32 0, ptr %11, align 4
  br label %13

13:                                               ; preds = %161, %4
  %14 = load ptr, ptr %6, align 8
  %15 = load i32, ptr %10, align 4
  %16 = sext i32 %15 to i64
  %17 = getelementptr i8, ptr %14, i64 %16
  %18 = load i8, ptr %17, align 1
  %19 = sext i8 %18 to i32
  %20 = load i8, ptr %9, align 1
  %21 = sext i8 %20 to i32
  %22 = icmp ne i32 %19, %21
  br i1 %22, label %23, label %162

23:                                               ; preds = %13
  %24 = load ptr, ptr @g_ascii_table, align 8
  %25 = load ptr, ptr %6, align 8
  %26 = load i32, ptr %10, align 4
  %27 = sext i32 %26 to i64
  %28 = getelementptr i8, ptr %25, i64 %27
  %29 = load i8, ptr %28, align 1
  %30 = zext i8 %29 to i64
  %31 = getelementptr i16, ptr %24, i64 %30
  %32 = load i16, ptr %31, align 2
  %33 = zext i16 %32 to i32
  %34 = and i32 %33, 1024
  %35 = icmp ne i32 %34, 0
  br i1 %35, label %36, label %50

36:                                               ; preds = %23
  %37 = load ptr, ptr @g_ascii_table, align 8
  %38 = load ptr, ptr %6, align 8
  %39 = load i32, ptr %10, align 4
  %40 = add i32 %39, 1
  %41 = sext i32 %40 to i64
  %42 = getelementptr i8, ptr %38, i64 %41
  %43 = load i8, ptr %42, align 1
  %44 = zext i8 %43 to i64
  %45 = getelementptr i16, ptr %37, i64 %44
  %46 = load i16, ptr %45, align 2
  %47 = zext i16 %46 to i32
  %48 = and i32 %47, 1024
  %49 = icmp ne i32 %48, 0
  br i1 %49, label %51, label %50

50:                                               ; preds = %36, %23
  store i32 0, ptr %5, align 4
  store i32 1, ptr %12, align 4
  br label %164

51:                                               ; preds = %36
  %52 = load ptr, ptr @g_ascii_table, align 8
  %53 = load ptr, ptr %6, align 8
  %54 = load i32, ptr %10, align 4
  %55 = sext i32 %54 to i64
  %56 = getelementptr i8, ptr %53, i64 %55
  %57 = load i8, ptr %56, align 1
  %58 = zext i8 %57 to i64
  %59 = getelementptr i16, ptr %52, i64 %58
  %60 = load i16, ptr %59, align 2
  %61 = zext i16 %60 to i32
  %62 = and i32 %61, 8
  %63 = icmp ne i32 %62, 0
  br i1 %63, label %64, label %78

64:                                               ; preds = %51
  %65 = load ptr, ptr %6, align 8
  %66 = load i32, ptr %10, align 4
  %67 = sext i32 %66 to i64
  %68 = getelementptr i8, ptr %65, i64 %67
  %69 = load i8, ptr %68, align 1
  %70 = sext i8 %69 to i32
  %71 = sub i32 %70, 48
  %72 = shl i32 %71, 4
  %73 = trunc i32 %72 to i8
  %74 = load ptr, ptr %7, align 8
  %75 = load i32, ptr %11, align 4
  %76 = sext i32 %75 to i64
  %77 = getelementptr i8, ptr %74, i64 %76
  store i8 %73, ptr %77, align 1
  br label %94

78:                                               ; preds = %51
  %79 = load ptr, ptr %6, align 8
  %80 = load i32, ptr %10, align 4
  %81 = sext i32 %80 to i64
  %82 = getelementptr i8, ptr %79, i64 %81
  %83 = load i8, ptr %82, align 1
  %84 = call signext i8 @g_ascii_toupper(i8 noundef signext %83) #13
  %85 = sext i8 %84 to i32
  %86 = sub i32 %85, 65
  %87 = add i32 %86, 10
  %88 = shl i32 %87, 4
  %89 = trunc i32 %88 to i8
  %90 = load ptr, ptr %7, align 8
  %91 = load i32, ptr %11, align 4
  %92 = sext i32 %91 to i64
  %93 = getelementptr i8, ptr %90, i64 %92
  store i8 %89, ptr %93, align 1
  br label %94

94:                                               ; preds = %78, %64
  %95 = load i32, ptr %10, align 4
  %96 = add i32 %95, 1
  store i32 %96, ptr %10, align 4
  %97 = load ptr, ptr @g_ascii_table, align 8
  %98 = load ptr, ptr %6, align 8
  %99 = load i32, ptr %10, align 4
  %100 = sext i32 %99 to i64
  %101 = getelementptr i8, ptr %98, i64 %100
  %102 = load i8, ptr %101, align 1
  %103 = zext i8 %102 to i64
  %104 = getelementptr i16, ptr %97, i64 %103
  %105 = load i16, ptr %104, align 2
  %106 = zext i16 %105 to i32
  %107 = and i32 %106, 8
  %108 = icmp ne i32 %107, 0
  br i1 %108, label %109, label %125

109:                                              ; preds = %94
  %110 = load ptr, ptr %6, align 8
  %111 = load i32, ptr %10, align 4
  %112 = sext i32 %111 to i64
  %113 = getelementptr i8, ptr %110, i64 %112
  %114 = load i8, ptr %113, align 1
  %115 = sext i8 %114 to i32
  %116 = sub i32 %115, 48
  %117 = load ptr, ptr %7, align 8
  %118 = load i32, ptr %11, align 4
  %119 = sext i32 %118 to i64
  %120 = getelementptr i8, ptr %117, i64 %119
  %121 = load i8, ptr %120, align 1
  %122 = zext i8 %121 to i32
  %123 = add i32 %122, %116
  %124 = trunc i32 %123 to i8
  store i8 %124, ptr %120, align 1
  br label %143

125:                                              ; preds = %94
  %126 = load ptr, ptr %6, align 8
  %127 = load i32, ptr %10, align 4
  %128 = sext i32 %127 to i64
  %129 = getelementptr i8, ptr %126, i64 %128
  %130 = load i8, ptr %129, align 1
  %131 = call signext i8 @g_ascii_toupper(i8 noundef signext %130) #13
  %132 = sext i8 %131 to i32
  %133 = sub i32 %132, 65
  %134 = add i32 %133, 10
  %135 = load ptr, ptr %7, align 8
  %136 = load i32, ptr %11, align 4
  %137 = sext i32 %136 to i64
  %138 = getelementptr i8, ptr %135, i64 %137
  %139 = load i8, ptr %138, align 1
  %140 = zext i8 %139 to i32
  %141 = add i32 %140, %134
  %142 = trunc i32 %141 to i8
  store i8 %142, ptr %138, align 1
  br label %143

143:                                              ; preds = %125, %109
  %144 = load i32, ptr %10, align 4
  %145 = add i32 %144, 1
  store i32 %145, ptr %10, align 4
  %146 = load i32, ptr %11, align 4
  %147 = add i32 %146, 1
  store i32 %147, ptr %11, align 4
  br label %148

148:                                              ; preds = %158, %143
  %149 = load ptr, ptr %6, align 8
  %150 = load i32, ptr %10, align 4
  %151 = sext i32 %150 to i64
  %152 = getelementptr i8, ptr %149, i64 %151
  %153 = load i8, ptr %152, align 1
  %154 = sext i8 %153 to i32
  %155 = load i8, ptr %8, align 1
  %156 = sext i8 %155 to i32
  %157 = icmp eq i32 %154, %156
  br i1 %157, label %158, label %161

158:                                              ; preds = %148
  %159 = load i32, ptr %10, align 4
  %160 = add i32 %159, 1
  store i32 %160, ptr %10, align 4
  br label %148, !llvm.loop !12

161:                                              ; preds = %148
  br label %13, !llvm.loop !13

162:                                              ; preds = %13
  %163 = load i32, ptr %11, align 4
  store i32 %163, ptr %5, align 4
  store i32 1, ptr %12, align 4
  br label %164

164:                                              ; preds = %162, %50
  call void @llvm.lifetime.end.p0(i64 4, ptr %11) #11
  call void @llvm.lifetime.end.p0(i64 4, ptr %10) #11
  %165 = load i32, ptr %5, align 4
  ret i32 %165
}