; Function Attrs: nofree nosync nounwind null_pointer_is_valid sspstrong memory(read, argmem: readwrite, inaccessiblemem: none) uwtable
define internal fastcc i32 @parse_hex_dump(ptr noundef readonly captures(none) %0, ptr noundef writeonly captures(none) %1, i8 noundef signext range(i8 32, 46) %2, i8 noundef signext range(i8 32, 94) %3) unnamed_addr #4 {
  %5 = load i8, ptr %0, align 1
  %.not42 = icmp eq i8 %5, %3
  br i1 %.not42, label %._crit_edge, label %.lr.ph

.lr.ph:                                           ; preds = %4
  %6 = load ptr, ptr @g_ascii_table, align 8
  br label %8

.loopexit:                                        ; preds = %50
  %7 = add i32 %.044, 1
  %.not = icmp eq i8 %53, %3
  br i1 %.not, label %._crit_edge, label %8, !llvm.loop !10

8:                                                ; preds = %.lr.ph, %.loopexit
  %9 = phi i8 [ %5, %.lr.ph ], [ %53, %.loopexit ]
  %.044 = phi i32 [ 0, %.lr.ph ], [ %7, %.loopexit ]
  %.03543 = phi i32 [ 0, %.lr.ph ], [ %.1, %.loopexit ]
  %10 = zext i8 %9 to i64
  %11 = getelementptr i16, ptr %6, i64 %10
  %12 = load i16, ptr %11, align 2
  %13 = zext i16 %12 to i32
  %14 = and i32 %13, 1024
  %.not38 = icmp eq i32 %14, 0
  br i1 %.not38, label %._crit_edge, label %15

15:                                               ; preds = %8
  %16 = add i32 %.03543, 1
  %17 = sext i32 %16 to i64
  %18 = getelementptr i8, ptr %0, i64 %17
  %19 = load i8, ptr %18, align 1
  %20 = zext i8 %19 to i64
  %21 = getelementptr i16, ptr %6, i64 %20
  %22 = load i16, ptr %21, align 2
  %23 = and i16 %22, 1024
  %.not39 = icmp eq i16 %23, 0
  br i1 %.not39, label %._crit_edge, label %24

24:                                               ; preds = %15
  %25 = and i32 %13, 8
  %.not40 = icmp eq i32 %25, 0
  br i1 %.not40, label %28, label %26

26:                                               ; preds = %24
  %27 = shl i8 %9, 4
  br label %32

28:                                               ; preds = %24
  %29 = tail call signext i8 @g_ascii_toupper(i8 noundef signext %9) #12
  %30 = shl i8 %29, 4
  %31 = add i8 %30, -112
  br label %32

32:                                               ; preds = %28, %26
  %.sink = phi i8 [ %31, %28 ], [ %27, %26 ]
  %33 = sext i32 %.044 to i64
  %34 = getelementptr i8, ptr %1, i64 %33
  store i8 %.sink, ptr %34, align 1
  %35 = load i8, ptr %18, align 1
  %36 = zext i8 %35 to i64
  %37 = getelementptr i16, ptr %6, i64 %36
  %38 = load i16, ptr %37, align 2
  %39 = and i16 %38, 8
  %.not41 = icmp eq i16 %39, 0
  br i1 %.not41, label %42, label %40

40:                                               ; preds = %32
  %41 = add i8 %35, -48
  br label %45

42:                                               ; preds = %32
  %43 = tail call signext i8 @g_ascii_toupper(i8 noundef signext %35) #12
  %44 = add i8 %43, -55
  br label %45

45:                                               ; preds = %42, %40
  %.sink53 = phi i8 [ %44, %42 ], [ %41, %40 ]
  %46 = sext i32 %.044 to i64
  %47 = getelementptr i8, ptr %1, i64 %46
  %48 = add i8 %.sink53, %.sink
  store i8 %48, ptr %47, align 1
  %49 = add i32 %.03543, 2
  br label %50

50:                                               ; preds = %50, %45
  %.1 = phi i32 [ %49, %45 ], [ %55, %50 ]
  %51 = sext i32 %.1 to i64
  %52 = getelementptr i8, ptr %0, i64 %51
  %53 = load i8, ptr %52, align 1
  %54 = icmp eq i8 %53, %2
  %55 = add i32 %.1, 1
  br i1 %54, label %50, label %.loopexit, !llvm.loop !11

._crit_edge:                                      ; preds = %15, %8, %.loopexit, %4
  %.036 = phi i32 [ 0, %4 ], [ %7, %.loopexit ], [ 0, %8 ], [ 0, %15 ]
  ret i32 %.036
}